; Function Attrs: mustprogress uwtable
define hidden void @_ZN4cvc58internal6theory3sep9TheorySep14HeapAssertInfoC2EPNS_7context7ContextE(ptr noundef nonnull align 8 dereferenceable(160) %0, ptr noundef %1) unnamed_addr #3 align 2 personality ptr @__gxx_personality_v0 {
  tail call void @_ZN4cvc57context10ContextObjC2EPNS0_7ContextE(ptr noundef nonnull align 8 dereferenceable(74) %0, ptr noundef %1)
  store ptr getelementptr inbounds nuw inrange(-16, 32) (i8, ptr @_ZTVN4cvc57context6CDListINS_8internal12NodeTemplateILb1EEENS0_14DefaultCleanUpIS4_EESaIS4_EEE, i64 16), ptr %0, align 8, !tbaa !14
  %3 = getelementptr inbounds nuw i8, ptr %0, i64 40
  %4 = getelementptr inbounds nuw i8, ptr %0, i64 72
  tail call void @llvm.memset.p0.i64(ptr noundef nonnull align 8 dereferenceable(32) %3, i8 0, i64 32, i1 false)
  store i8 1, ptr %4, align 8, !tbaa !167
  %5 = getelementptr inbounds nuw i8, ptr %0, i64 80
  invoke void @_ZN4cvc57context10ContextObjC2EPNS0_7ContextE(ptr noundef nonnull align 8 dereferenceable(74) %5, ptr noundef %1)
          to label %6 unwind label %9

6:                                                ; preds = %2
  store ptr getelementptr inbounds nuw inrange(-16, 32) (i8, ptr @_ZTVN4cvc57context6CDListINS_8internal12NodeTemplateILb1EEENS0_14DefaultCleanUpIS4_EESaIS4_EEE, i64 16), ptr %5, align 8, !tbaa !14
  %7 = getelementptr inbounds nuw i8, ptr %0, i64 120
  %8 = getelementptr inbounds nuw i8, ptr %0, i64 152
  tail call void @llvm.memset.p0.i64(ptr noundef nonnull align 8 dereferenceable(32) %7, i8 0, i64 32, i1 false)
  store i8 1, ptr %8, align 8, !tbaa !167
  ret void

9:                                                ; preds = %2
  %10 = landingpad { ptr, i32 }
          cleanup
  tail call void @_ZN4cvc57context6CDListINS_8internal12NodeTemplateILb1EEENS0_14DefaultCleanUpIS4_EESaIS4_EED2Ev(ptr noundef nonnull align 8 dereferenceable(74) %0) #26
  resume { ptr, i32 } %10
}